; Function Attrs: mustprogress nounwind uwtable
define void @_ZN5draco16SymbolBitEncoder5ClearEv(ptr noundef nonnull align 8 dereferenceable(24) %0) local_unnamed_addr #5 align 2 personality ptr @__gxx_personality_v0 {
  %2 = load ptr, ptr %0, align 8, !tbaa !12
  %3 = getelementptr inbounds nuw i8, ptr %0, i64 8
  %4 = load ptr, ptr %3, align 8, !tbaa !3
  %.not.i.i = icmp eq ptr %4, %2
  br i1 %.not.i.i, label %_ZNSt6vectorIjSaIjEE5clearEv.exit, label %5

5:                                                ; preds = %1
  store ptr %2, ptr %3, align 8, !tbaa !3
  br label %_ZNSt6vectorIjSaIjEE5clearEv.exit

_ZNSt6vectorIjSaIjEE5clearEv.exit:                ; preds = %1, %5
  %6 = getelementptr inbounds nuw i8, ptr %0, i64 16
  %7 = load ptr, ptr %6, align 8, !tbaa !9
  %8 = icmp eq ptr %7, %2
  br i1 %8, label %_ZNSt6vectorIjSaIjEE13shrink_to_fitEv.exit, label %9

9:                                                ; preds = %_ZNSt6vectorIjSaIjEE5clearEv.exit
  %10 = tail call noundef zeroext i1 @_ZNSt19__shrink_to_fit_auxISt6vectorIjSaIjEELb1EE8_S_do_itERS2_(ptr noundef nonnull align 8 dereferenceable(24) %0) #19
  br label %_ZNSt6vectorIjSaIjEE13shrink_to_fitEv.exit

_ZNSt6vectorIjSaIjEE13shrink_to_fitEv.exit:       ; preds = %_ZNSt6vectorIjSaIjEE5clearEv.exit, %9
  ret void
}